ARM GAS  C:\Users\brenn\AppData\Local\Temp\ccOzUpww.s 			page 1


   1              		.syntax unified
   2              		.cpu cortex-m3
   3              		.fpu softvfp
   4              		.eabi_attribute 20, 1
   5              		.eabi_attribute 21, 1
   6              		.eabi_attribute 23, 3
   7              		.eabi_attribute 24, 1
   8              		.eabi_attribute 25, 1
   9              		.eabi_attribute 26, 1
  10              		.eabi_attribute 30, 1
  11              		.eabi_attribute 34, 1
  12              		.eabi_attribute 18, 4
  13              		.thumb
  14              		.syntax unified
  15              		.file	"main.c"
  16              		.text
  17              	.Ltext0:
  18              		.cfi_sections	.debug_frame
  19              		.global	__aeabi_i2d
  20              		.global	__aeabi_dmul
  21              		.global	__aeabi_ddiv
  22              		.global	__aeabi_dsub
  23              		.global	__aeabi_d2f
  24              		.section	.text.initialize_audio_vector,"ax",%progbits
  25              		.align	2
  26              		.global	initialize_audio_vector
  27              		.thumb
  28              		.thumb_func
  29              		.type	initialize_audio_vector, %function
  30              	initialize_audio_vector:
  31              	.LFB64:
  32              		.file 1 "main.c"
   1:main.c        **** /*
   2:main.c        ****  * ======================================================================================
   3:main.c        ****  * Project name: Never Lose
   4:main.c        ****  * Group number: 3
   5:main.c        ****  * Authors : Aguilar Adriano, Azouar Mohamed, El Mokhtari Younes, Ferreira Ribeiro Brenno
   6:main.c        ****  * Date: 23/05/2023
   7:main.c        ****  * Github link: 
   8:main.c        ****  * ======================================================================================
   9:main.c        **** */
  10:main.c        **** 
  11:main.c        **** //Imports
  12:main.c        **** #include <math.h>
  13:main.c        **** #include "project.h"
  14:main.c        **** #include "keypad.h"
  15:main.c        **** #include <stdbool.h>
  16:main.c        **** #include <string.h>
  17:main.c        **** #include <stdio.h>
  18:main.c        **** 
  19:main.c        **** // Constants
  20:main.c        **** #define UART_RX_DATA_LENGTH 5
  21:main.c        **** #define N 100
  22:main.c        **** #define PI 3.14
  23:main.c        **** #define INITIAL_POSITION 900
  24:main.c        **** #define RELEASE 1000                                       
  25:main.c        **** #define PRESS 2000
ARM GAS  C:\Users\brenn\AppData\Local\Temp\ccOzUpww.s 			page 2


  26:main.c        **** #define JUMP_THRESHOLD_VALUE 2400
  27:main.c        **** #define DUCK_THRESHOLD_VALUE 2000
  28:main.c        **** #define HIGH 1
  29:main.c        **** #define LOW 0
  30:main.c        **** #define LEFT_ROW 0
  31:main.c        **** #define LEFT_COLUMN 0
  32:main.c        **** #define RIGHT_ROW 1
  33:main.c        **** #define RIGHT_COLUMN 0
  34:main.c        **** #define DEFAULT_DELAY 30
  35:main.c        **** #define SCORE_INCREMENT_PER_SECOND 10
  36:main.c        **** #define JUMP_KEY '1'
  37:main.c        **** #define DUCK_KEY '3'
  38:main.c        **** 
  39:main.c        **** //Structures
  40:main.c        **** typedef struct {
  41:main.c        **** 	float position;
  42:main.c        **** 	float speed;
  43:main.c        **** } dino_t;
  44:main.c        **** 
  45:main.c        **** typedef struct {
  46:main.c        **** 	float position;
  47:main.c        ****     float width;
  48:main.c        **** } obstacle_t;
  49:main.c        **** 
  50:main.c        **** // Global variables
  51:main.c        **** char uart_rx_buffer;
  52:main.c        **** char uart_rx_data[UART_RX_DATA_LENGTH];
  53:main.c        **** char score_message[32];
  54:main.c        **** int uart_rx_counter = 0;
  55:main.c        **** int speed = 0;
  56:main.c        **** int score = 0;
  57:main.c        **** int count = 0;
  58:main.c        **** float jump_audio_vector[100];
  59:main.c        **** float duck_audio_vector[100];
  60:main.c        **** bool is_running = false;
  61:main.c        **** bool is_ground_obstacle_detected = false;
  62:main.c        **** bool is_flying_obstacle_detected = false;
  63:main.c        **** 
  64:main.c        **** // Functions
  65:main.c        **** void initialize_audio_vector(float *audio_vector, int type) {
  33              		.loc 1 65 0
  34              		.cfi_startproc
  35              		@ args = 0, pretend = 0, frame = 0
  36              		@ frame_needed = 0, uses_anonymous_args = 0
  37              	.LVL0:
  38 0000 2DE9F041 		push	{r4, r5, r6, r7, r8, lr}
  39              		.cfi_def_cfa_offset 24
  40              		.cfi_offset 4, -24
  41              		.cfi_offset 5, -20
  42              		.cfi_offset 6, -16
  43              		.cfi_offset 7, -12
  44              		.cfi_offset 8, -8
  45              		.cfi_offset 14, -4
  46 0004 8046     		mov	r8, r0
  47 0006 0D46     		mov	r5, r1
  48              	.LVL1:
  49              	.LBB2:
ARM GAS  C:\Users\brenn\AppData\Local\Temp\ccOzUpww.s 			page 3


  66:main.c        ****     for (int i = 0; i < N; i++){
  50              		.loc 1 66 0
  51 0008 0024     		movs	r4, #0
  52 000a 26E0     		b	.L2
  53              	.LVL2:
  54              	.L3:
  67:main.c        ****         audio_vector[i] = sin(type*PI/2 - 2*PI*i/N);
  55              		.loc 1 67 0 discriminator 3
  56 000c 2846     		mov	r0, r5
  57 000e FFF7FEFF 		bl	__aeabi_i2d
  58              	.LVL3:
  59 0012 15A3     		adr	r3, .L5
  60 0014 D3E90023 		ldrd	r2, [r3]
  61 0018 FFF7FEFF 		bl	__aeabi_dmul
  62              	.LVL4:
  63 001c 0022     		movs	r2, #0
  64 001e 164B     		ldr	r3, .L5+16
  65 0020 FFF7FEFF 		bl	__aeabi_dmul
  66              	.LVL5:
  67 0024 0646     		mov	r6, r0
  68 0026 0F46     		mov	r7, r1
  69 0028 2046     		mov	r0, r4
  70 002a FFF7FEFF 		bl	__aeabi_i2d
  71              	.LVL6:
  72 002e 10A3     		adr	r3, .L5+8
  73 0030 D3E90023 		ldrd	r2, [r3]
  74 0034 FFF7FEFF 		bl	__aeabi_dmul
  75              	.LVL7:
  76 0038 0022     		movs	r2, #0
  77 003a 104B     		ldr	r3, .L5+20
  78 003c FFF7FEFF 		bl	__aeabi_ddiv
  79              	.LVL8:
  80 0040 0246     		mov	r2, r0
  81 0042 0B46     		mov	r3, r1
  82 0044 3046     		mov	r0, r6
  83 0046 3946     		mov	r1, r7
  84 0048 FFF7FEFF 		bl	__aeabi_dsub
  85              	.LVL9:
  86 004c FFF7FEFF 		bl	sin
  87              	.LVL10:
  88 0050 FFF7FEFF 		bl	__aeabi_d2f
  89              	.LVL11:
  90 0054 48F82400 		str	r0, [r8, r4, lsl #2]	@ float
  66:main.c        ****     for (int i = 0; i < N; i++){
  91              		.loc 1 66 0 discriminator 3
  92 0058 0134     		adds	r4, r4, #1
  93              	.LVL12:
  94              	.L2:
  66:main.c        ****     for (int i = 0; i < N; i++){
  95              		.loc 1 66 0 is_stmt 0 discriminator 1
  96 005a 632C     		cmp	r4, #99
  97 005c D6DD     		ble	.L3
  98              	.LBE2:
  68:main.c        ****     }
  69:main.c        **** }
  99              		.loc 1 69 0 is_stmt 1
 100 005e BDE8F081 		pop	{r4, r5, r6, r7, r8, pc}
ARM GAS  C:\Users\brenn\AppData\Local\Temp\ccOzUpww.s 			page 4


 101              	.LVL13:
 102              	.L6:
 103 0062 00BFAFF3 		.align	3
 103      0080
 104              	.L5:
 105 0068 1F85EB51 		.word	1374389535
 106 006c B81E0940 		.word	1074339512
 107 0070 1F85EB51 		.word	1374389535
 108 0074 B81E1940 		.word	1075388088
 109 0078 0000E03F 		.word	1071644672
 110 007c 00005940 		.word	1079574528
 111              		.cfi_endproc
 112              	.LFE64:
 113              		.size	initialize_audio_vector, .-initialize_audio_vector
 114              		.section	.text.initialize_servos,"ax",%progbits
 115              		.align	2
 116              		.global	initialize_servos
 117              		.thumb
 118              		.thumb_func
 119              		.type	initialize_servos, %function
 120              	initialize_servos:
 121              	.LFB65:
  70:main.c        **** 
  71:main.c        **** void initialize_servos() {
 122              		.loc 1 71 0
 123              		.cfi_startproc
 124              		@ args = 0, pretend = 0, frame = 0
 125              		@ frame_needed = 0, uses_anonymous_args = 0
 126 0000 08B5     		push	{r3, lr}
 127              		.cfi_def_cfa_offset 8
 128              		.cfi_offset 3, -8
 129              		.cfi_offset 14, -4
  72:main.c        ****     PWM_WriteCompare1(INITIAL_POSITION);
 130              		.loc 1 72 0
 131 0002 4FF46170 		mov	r0, #900
 132 0006 FFF7FEFF 		bl	PWM_WriteCompare1
 133              	.LVL14:
  73:main.c        ****     PWM_WriteCompare2(INITIAL_POSITION);
 134              		.loc 1 73 0
 135 000a 4FF46170 		mov	r0, #900
 136 000e FFF7FEFF 		bl	PWM_WriteCompare2
 137              	.LVL15:
 138 0012 08BD     		pop	{r3, pc}
 139              		.cfi_endproc
 140              	.LFE65:
 141              		.size	initialize_servos, .-initialize_servos
 142              		.section	.text.print_on_LCD,"ax",%progbits
 143              		.align	2
 144              		.global	print_on_LCD
 145              		.thumb
 146              		.thumb_func
 147              		.type	print_on_LCD, %function
 148              	print_on_LCD:
 149              	.LFB66:
  74:main.c        **** }
  75:main.c        **** 
  76:main.c        **** void print_on_LCD(const char* message, const int row_number, const int column_number) {
ARM GAS  C:\Users\brenn\AppData\Local\Temp\ccOzUpww.s 			page 5


 150              		.loc 1 76 0
 151              		.cfi_startproc
 152              		@ args = 0, pretend = 0, frame = 0
 153              		@ frame_needed = 0, uses_anonymous_args = 0
 154              	.LVL16:
 155 0000 10B5     		push	{r4, lr}
 156              		.cfi_def_cfa_offset 8
 157              		.cfi_offset 4, -8
 158              		.cfi_offset 14, -4
 159 0002 0446     		mov	r4, r0
  77:main.c        ****     LCD_Position(row_number, column_number);
 160              		.loc 1 77 0
 161 0004 C8B2     		uxtb	r0, r1
 162              	.LVL17:
 163 0006 D1B2     		uxtb	r1, r2
 164              	.LVL18:
 165 0008 FFF7FEFF 		bl	LCD_Position
 166              	.LVL19:
  78:main.c        ****     LCD_PrintString(message);
 167              		.loc 1 78 0
 168 000c 2046     		mov	r0, r4
 169 000e FFF7FEFF 		bl	LCD_PrintString
 170              	.LVL20:
 171 0012 10BD     		pop	{r4, pc}
 172              		.cfi_endproc
 173              	.LFE66:
 174              		.size	print_on_LCD, .-print_on_LCD
 175              		.section	.text.detect_obstacle,"ax",%progbits
 176              		.align	2
 177              		.global	detect_obstacle
 178              		.thumb
 179              		.thumb_func
 180              		.type	detect_obstacle, %function
 181              	detect_obstacle:
 182              	.LFB67:
  79:main.c        **** }
  80:main.c        **** 
  81:main.c        **** void detect_obstacle() {
 183              		.loc 1 81 0
 184              		.cfi_startproc
 185              		@ args = 0, pretend = 0, frame = 0
 186              		@ frame_needed = 0, uses_anonymous_args = 0
 187 0000 38B5     		push	{r3, r4, r5, lr}
 188              		.cfi_def_cfa_offset 16
 189              		.cfi_offset 3, -16
 190              		.cfi_offset 4, -12
 191              		.cfi_offset 5, -8
 192              		.cfi_offset 14, -4
  82:main.c        ****     AMux_Select(0);
 193              		.loc 1 82 0
 194 0002 0020     		movs	r0, #0
 195 0004 FFF7FEFF 		bl	AMux_Select
 196              	.LVL21:
  83:main.c        ****     CyDelay(10);
 197              		.loc 1 83 0
 198 0008 0A20     		movs	r0, #10
 199 000a FFF7FEFF 		bl	CyDelay
ARM GAS  C:\Users\brenn\AppData\Local\Temp\ccOzUpww.s 			page 6


 200              	.LVL22:
  84:main.c        ****     int32_t jump_value= ADC_Read32();
 201              		.loc 1 84 0
 202 000e FFF7FEFF 		bl	ADC_Read32
 203              	.LVL23:
  85:main.c        ****     jump_value = jump_value*5000/0xFFFF;
 204              		.loc 1 85 0
 205 0012 41F28834 		movw	r4, #5000
 206 0016 04FB00F5 		mul	r5, r4, r0
 207              	.LVL24:
  86:main.c        ****     
  87:main.c        ****     AMux_Select(1);
 208              		.loc 1 87 0
 209 001a 0120     		movs	r0, #1
 210 001c FFF7FEFF 		bl	AMux_Select
 211              	.LVL25:
  88:main.c        ****     CyDelay(10);
 212              		.loc 1 88 0
 213 0020 0A20     		movs	r0, #10
 214 0022 FFF7FEFF 		bl	CyDelay
 215              	.LVL26:
  89:main.c        ****     int32_t duck_value = ADC_Read32();
 216              		.loc 1 89 0
 217 0026 FFF7FEFF 		bl	ADC_Read32
 218              	.LVL27:
  90:main.c        ****     duck_value = duck_value*5000/0xFFFF;
 219              		.loc 1 90 0
 220 002a 04FB00F0 		mul	r0, r4, r0
 221              	.LVL28:
  91:main.c        ****    
  92:main.c        ****     
  93:main.c        ****     if (jump_value < JUMP_THRESHOLD_VALUE) {
 222              		.loc 1 93 0
 223 002e 064B     		ldr	r3, .L15
 224 0030 9D42     		cmp	r5, r3
 225 0032 02DC     		bgt	.L12
  94:main.c        ****         is_ground_obstacle_detected = true;
 226              		.loc 1 94 0
 227 0034 0122     		movs	r2, #1
 228 0036 054B     		ldr	r3, .L15+4
 229 0038 1A70     		strb	r2, [r3]
 230              	.L12:
  95:main.c        ****     }
  96:main.c        ****     
  97:main.c        ****     if (duck_value < DUCK_THRESHOLD_VALUE) {
 231              		.loc 1 97 0
 232 003a 054B     		ldr	r3, .L15+8
 233 003c 9842     		cmp	r0, r3
 234 003e 02DC     		bgt	.L11
  98:main.c        ****         is_flying_obstacle_detected = true;
 235              		.loc 1 98 0
 236 0040 0122     		movs	r2, #1
 237 0042 024B     		ldr	r3, .L15+4
 238 0044 5A70     		strb	r2, [r3, #1]
 239              	.L11:
 240 0046 38BD     		pop	{r3, r4, r5, pc}
 241              	.LVL29:
ARM GAS  C:\Users\brenn\AppData\Local\Temp\ccOzUpww.s 			page 7


 242              	.L16:
 243              		.align	2
 244              	.L15:
 245 0048 9FF65F09 		.word	157283999
 246 004c 00000000 		.word	.LANCHOR0
 247 0050 2FF8CF07 		.word	131069999
 248              		.cfi_endproc
 249              	.LFE67:
 250              		.size	detect_obstacle, .-detect_obstacle
 251              		.section	.text.is_dino_close_ground_obstacle,"ax",%progbits
 252              		.align	2
 253              		.global	is_dino_close_ground_obstacle
 254              		.thumb
 255              		.thumb_func
 256              		.type	is_dino_close_ground_obstacle, %function
 257              	is_dino_close_ground_obstacle:
 258              	.LFB68:
  99:main.c        ****     } 
 100:main.c        ****     
 101:main.c        **** }
 102:main.c        **** 
 103:main.c        **** bool is_dino_close_ground_obstacle() {
 259              		.loc 1 103 0
 260              		.cfi_startproc
 261              		@ args = 0, pretend = 0, frame = 0
 262              		@ frame_needed = 0, uses_anonymous_args = 0
 263              		@ link register save eliminated.
 104:main.c        ****     bool result = is_ground_obstacle_detected;
 264              		.loc 1 104 0
 265 0000 024B     		ldr	r3, .L18
 266 0002 1878     		ldrb	r0, [r3]	@ zero_extendqisi2
 267              	.LVL30:
 105:main.c        ****     is_ground_obstacle_detected = false;
 268              		.loc 1 105 0
 269 0004 0022     		movs	r2, #0
 270 0006 1A70     		strb	r2, [r3]
 106:main.c        ****     return result;
 107:main.c        **** }
 271              		.loc 1 107 0
 272 0008 7047     		bx	lr
 273              	.L19:
 274 000a 00BF     		.align	2
 275              	.L18:
 276 000c 00000000 		.word	.LANCHOR0
 277              		.cfi_endproc
 278              	.LFE68:
 279              		.size	is_dino_close_ground_obstacle, .-is_dino_close_ground_obstacle
 280              		.section	.text.is_dino_close_flying_obstacle,"ax",%progbits
 281              		.align	2
 282              		.global	is_dino_close_flying_obstacle
 283              		.thumb
 284              		.thumb_func
 285              		.type	is_dino_close_flying_obstacle, %function
 286              	is_dino_close_flying_obstacle:
 287              	.LFB69:
 108:main.c        **** 
 109:main.c        **** bool is_dino_close_flying_obstacle() {
ARM GAS  C:\Users\brenn\AppData\Local\Temp\ccOzUpww.s 			page 8


 288              		.loc 1 109 0
 289              		.cfi_startproc
 290              		@ args = 0, pretend = 0, frame = 0
 291              		@ frame_needed = 0, uses_anonymous_args = 0
 292              		@ link register save eliminated.
 110:main.c        ****     bool result = is_flying_obstacle_detected;
 293              		.loc 1 110 0
 294 0000 024B     		ldr	r3, .L21
 295 0002 5878     		ldrb	r0, [r3, #1]	@ zero_extendqisi2
 296              	.LVL31:
 111:main.c        ****     is_flying_obstacle_detected = false;
 297              		.loc 1 111 0
 298 0004 0022     		movs	r2, #0
 299 0006 5A70     		strb	r2, [r3, #1]
 112:main.c        ****     return result;
 113:main.c        **** }
 300              		.loc 1 113 0
 301 0008 7047     		bx	lr
 302              	.L22:
 303 000a 00BF     		.align	2
 304              	.L21:
 305 000c 00000000 		.word	.LANCHOR0
 306              		.cfi_endproc
 307              	.LFE69:
 308              		.size	is_dino_close_flying_obstacle, .-is_dino_close_flying_obstacle
 309              		.section	.text.servo_press_spacebar,"ax",%progbits
 310              		.align	2
 311              		.global	servo_press_spacebar
 312              		.thumb
 313              		.thumb_func
 314              		.type	servo_press_spacebar, %function
 315              	servo_press_spacebar:
 316              	.LFB70:
 114:main.c        **** 
 115:main.c        **** void servo_press_spacebar() {
 317              		.loc 1 115 0
 318              		.cfi_startproc
 319              		@ args = 0, pretend = 0, frame = 0
 320              		@ frame_needed = 0, uses_anonymous_args = 0
 321 0000 08B5     		push	{r3, lr}
 322              		.cfi_def_cfa_offset 8
 323              		.cfi_offset 3, -8
 324              		.cfi_offset 14, -4
 116:main.c        ****     PWM_WriteCompare1(PRESS);
 325              		.loc 1 116 0
 326 0002 4FF4FA60 		mov	r0, #2000
 327 0006 FFF7FEFF 		bl	PWM_WriteCompare1
 328              	.LVL32:
 329 000a 08BD     		pop	{r3, pc}
 330              		.cfi_endproc
 331              	.LFE70:
 332              		.size	servo_press_spacebar, .-servo_press_spacebar
 333              		.section	.text.servo_release_spacebar,"ax",%progbits
 334              		.align	2
 335              		.global	servo_release_spacebar
 336              		.thumb
 337              		.thumb_func
ARM GAS  C:\Users\brenn\AppData\Local\Temp\ccOzUpww.s 			page 9


 338              		.type	servo_release_spacebar, %function
 339              	servo_release_spacebar:
 340              	.LFB71:
 117:main.c        **** }
 118:main.c        **** 
 119:main.c        **** void servo_release_spacebar() {
 341              		.loc 1 119 0
 342              		.cfi_startproc
 343              		@ args = 0, pretend = 0, frame = 0
 344              		@ frame_needed = 0, uses_anonymous_args = 0
 345 0000 08B5     		push	{r3, lr}
 346              		.cfi_def_cfa_offset 8
 347              		.cfi_offset 3, -8
 348              		.cfi_offset 14, -4
 120:main.c        ****     PWM_WriteCompare1(RELEASE);
 349              		.loc 1 120 0
 350 0002 4FF47A70 		mov	r0, #1000
 351 0006 FFF7FEFF 		bl	PWM_WriteCompare1
 352              	.LVL33:
 353 000a 08BD     		pop	{r3, pc}
 354              		.cfi_endproc
 355              	.LFE71:
 356              		.size	servo_release_spacebar, .-servo_release_spacebar
 357              		.section	.text.servo_press_down_arrow_key,"ax",%progbits
 358              		.align	2
 359              		.global	servo_press_down_arrow_key
 360              		.thumb
 361              		.thumb_func
 362              		.type	servo_press_down_arrow_key, %function
 363              	servo_press_down_arrow_key:
 364              	.LFB72:
 121:main.c        **** }
 122:main.c        **** 
 123:main.c        **** void servo_press_down_arrow_key() {
 365              		.loc 1 123 0
 366              		.cfi_startproc
 367              		@ args = 0, pretend = 0, frame = 0
 368              		@ frame_needed = 0, uses_anonymous_args = 0
 369 0000 08B5     		push	{r3, lr}
 370              		.cfi_def_cfa_offset 8
 371              		.cfi_offset 3, -8
 372              		.cfi_offset 14, -4
 124:main.c        ****     PWM_WriteCompare2(PRESS);
 373              		.loc 1 124 0
 374 0002 4FF4FA60 		mov	r0, #2000
 375 0006 FFF7FEFF 		bl	PWM_WriteCompare2
 376              	.LVL34:
 377 000a 08BD     		pop	{r3, pc}
 378              		.cfi_endproc
 379              	.LFE72:
 380              		.size	servo_press_down_arrow_key, .-servo_press_down_arrow_key
 381              		.section	.text.servo_release_down_arrow_key,"ax",%progbits
 382              		.align	2
 383              		.global	servo_release_down_arrow_key
 384              		.thumb
 385              		.thumb_func
 386              		.type	servo_release_down_arrow_key, %function
ARM GAS  C:\Users\brenn\AppData\Local\Temp\ccOzUpww.s 			page 10


 387              	servo_release_down_arrow_key:
 388              	.LFB73:
 125:main.c        **** }
 126:main.c        **** 
 127:main.c        **** void servo_release_down_arrow_key() {
 389              		.loc 1 127 0
 390              		.cfi_startproc
 391              		@ args = 0, pretend = 0, frame = 0
 392              		@ frame_needed = 0, uses_anonymous_args = 0
 393 0000 08B5     		push	{r3, lr}
 394              		.cfi_def_cfa_offset 8
 395              		.cfi_offset 3, -8
 396              		.cfi_offset 14, -4
 128:main.c        ****     PWM_WriteCompare2(RELEASE);
 397              		.loc 1 128 0
 398 0002 4FF47A70 		mov	r0, #1000
 399 0006 FFF7FEFF 		bl	PWM_WriteCompare2
 400              	.LVL35:
 401 000a 08BD     		pop	{r3, pc}
 402              		.cfi_endproc
 403              	.LFE73:
 404              		.size	servo_release_down_arrow_key, .-servo_release_down_arrow_key
 405              		.section	.text.set_LED1_and_LED2,"ax",%progbits
 406              		.align	2
 407              		.global	set_LED1_and_LED2
 408              		.thumb
 409              		.thumb_func
 410              		.type	set_LED1_and_LED2, %function
 411              	set_LED1_and_LED2:
 412              	.LFB74:
 129:main.c        **** }
 130:main.c        **** 
 131:main.c        **** void set_LED1_and_LED2(const int value) {
 413              		.loc 1 131 0
 414              		.cfi_startproc
 415              		@ args = 0, pretend = 0, frame = 0
 416              		@ frame_needed = 0, uses_anonymous_args = 0
 417              	.LVL36:
 418 0000 10B5     		push	{r4, lr}
 419              		.cfi_def_cfa_offset 8
 420              		.cfi_offset 4, -8
 421              		.cfi_offset 14, -4
 132:main.c        ****     LED_1_Write(value);
 422              		.loc 1 132 0
 423 0002 C4B2     		uxtb	r4, r0
 424 0004 2046     		mov	r0, r4
 425              	.LVL37:
 426 0006 FFF7FEFF 		bl	LED_1_Write
 427              	.LVL38:
 133:main.c        ****     LED_2_Write(value);
 428              		.loc 1 133 0
 429 000a 2046     		mov	r0, r4
 430 000c FFF7FEFF 		bl	LED_2_Write
 431              	.LVL39:
 432 0010 10BD     		pop	{r4, pc}
 433              		.cfi_endproc
 434              	.LFE74:
ARM GAS  C:\Users\brenn\AppData\Local\Temp\ccOzUpww.s 			page 11


 435              		.size	set_LED1_and_LED2, .-set_LED1_and_LED2
 436 0012 00BF     		.section	.text.set_LED3_and_LED4,"ax",%progbits
 437              		.align	2
 438              		.global	set_LED3_and_LED4
 439              		.thumb
 440              		.thumb_func
 441              		.type	set_LED3_and_LED4, %function
 442              	set_LED3_and_LED4:
 443              	.LFB75:
 134:main.c        **** }
 135:main.c        **** 
 136:main.c        **** void set_LED3_and_LED4(const int value) {
 444              		.loc 1 136 0
 445              		.cfi_startproc
 446              		@ args = 0, pretend = 0, frame = 0
 447              		@ frame_needed = 0, uses_anonymous_args = 0
 448              	.LVL40:
 449 0000 10B5     		push	{r4, lr}
 450              		.cfi_def_cfa_offset 8
 451              		.cfi_offset 4, -8
 452              		.cfi_offset 14, -4
 137:main.c        ****     LED_3_Write(value);
 453              		.loc 1 137 0
 454 0002 C4B2     		uxtb	r4, r0
 455 0004 2046     		mov	r0, r4
 456              	.LVL41:
 457 0006 FFF7FEFF 		bl	LED_3_Write
 458              	.LVL42:
 138:main.c        ****     LED_4_Write(value);
 459              		.loc 1 138 0
 460 000a 2046     		mov	r0, r4
 461 000c FFF7FEFF 		bl	LED_4_Write
 462              	.LVL43:
 463 0010 10BD     		pop	{r4, pc}
 464              		.cfi_endproc
 465              	.LFE75:
 466              		.size	set_LED3_and_LED4, .-set_LED3_and_LED4
 467 0012 00BF     		.section	.text.send_data_to_PC,"ax",%progbits
 468              		.align	2
 469              		.global	send_data_to_PC
 470              		.thumb
 471              		.thumb_func
 472              		.type	send_data_to_PC, %function
 473              	send_data_to_PC:
 474              	.LFB76:
 139:main.c        **** }
 140:main.c        **** 
 141:main.c        **** void send_data_to_PC(const char* data) {
 475              		.loc 1 141 0
 476              		.cfi_startproc
 477              		@ args = 0, pretend = 0, frame = 0
 478              		@ frame_needed = 0, uses_anonymous_args = 0
 479              	.LVL44:
 480 0000 08B5     		push	{r3, lr}
 481              		.cfi_def_cfa_offset 8
 482              		.cfi_offset 3, -8
 483              		.cfi_offset 14, -4
ARM GAS  C:\Users\brenn\AppData\Local\Temp\ccOzUpww.s 			page 12


 142:main.c        ****     UART_PutString(data);
 484              		.loc 1 142 0
 485 0002 FFF7FEFF 		bl	UART_PutString
 486              	.LVL45:
 487 0006 08BD     		pop	{r3, pc}
 488              		.cfi_endproc
 489              	.LFE76:
 490              		.size	send_data_to_PC, .-send_data_to_PC
 491              		.global	__aeabi_fmul
 492              		.global	__aeabi_f2uiz
 493              		.section	.text.play_sound_jump,"ax",%progbits
 494              		.align	2
 495              		.global	play_sound_jump
 496              		.thumb
 497              		.thumb_func
 498              		.type	play_sound_jump, %function
 499              	play_sound_jump:
 500              	.LFB77:
 143:main.c        **** }
 144:main.c        **** 
 145:main.c        **** 
 146:main.c        **** 
 147:main.c        **** void play_sound_jump() {
 501              		.loc 1 147 0
 502              		.cfi_startproc
 503              		@ args = 0, pretend = 0, frame = 0
 504              		@ frame_needed = 0, uses_anonymous_args = 0
 505 0000 10B5     		push	{r4, lr}
 506              		.cfi_def_cfa_offset 8
 507              		.cfi_offset 4, -8
 508              		.cfi_offset 14, -4
 509              	.LVL46:
 510              	.LBB3:
 148:main.c        ****     for (int i =0 ; i < N; i++){
 511              		.loc 1 148 0
 512 0002 0024     		movs	r4, #0
 513 0004 0EE0     		b	.L38
 514              	.LVL47:
 515              	.L39:
 149:main.c        ****         VDAC_SetValue(jump_audio_vector[i]*1000);
 516              		.loc 1 149 0 discriminator 3
 517 0006 0949     		ldr	r1, .L41
 518 0008 094B     		ldr	r3, .L41+4
 519 000a 53F82400 		ldr	r0, [r3, r4, lsl #2]	@ float
 520 000e FFF7FEFF 		bl	__aeabi_fmul
 521              	.LVL48:
 522 0012 FFF7FEFF 		bl	__aeabi_f2uiz
 523              	.LVL49:
 524 0016 C0B2     		uxtb	r0, r0
 525 0018 FFF7FEFF 		bl	VDAC_SetValue
 526              	.LVL50:
 150:main.c        ****         CyDelay(2);
 527              		.loc 1 150 0 discriminator 3
 528 001c 0220     		movs	r0, #2
 529 001e FFF7FEFF 		bl	CyDelay
 530              	.LVL51:
 148:main.c        ****     for (int i =0 ; i < N; i++){
ARM GAS  C:\Users\brenn\AppData\Local\Temp\ccOzUpww.s 			page 13


 531              		.loc 1 148 0 discriminator 3
 532 0022 0134     		adds	r4, r4, #1
 533              	.LVL52:
 534              	.L38:
 148:main.c        ****     for (int i =0 ; i < N; i++){
 535              		.loc 1 148 0 is_stmt 0 discriminator 1
 536 0024 632C     		cmp	r4, #99
 537 0026 EEDD     		ble	.L39
 538              	.LBE3:
 151:main.c        ****     }
 152:main.c        **** }
 539              		.loc 1 152 0 is_stmt 1
 540 0028 10BD     		pop	{r4, pc}
 541              	.LVL53:
 542              	.L42:
 543 002a 00BF     		.align	2
 544              	.L41:
 545 002c 00007A44 		.word	1148846080
 546 0030 00000000 		.word	jump_audio_vector
 547              		.cfi_endproc
 548              	.LFE77:
 549              		.size	play_sound_jump, .-play_sound_jump
 550              		.section	.text.play_sound_duck,"ax",%progbits
 551              		.align	2
 552              		.global	play_sound_duck
 553              		.thumb
 554              		.thumb_func
 555              		.type	play_sound_duck, %function
 556              	play_sound_duck:
 557              	.LFB78:
 153:main.c        **** 
 154:main.c        **** void play_sound_duck() {
 558              		.loc 1 154 0
 559              		.cfi_startproc
 560              		@ args = 0, pretend = 0, frame = 0
 561              		@ frame_needed = 0, uses_anonymous_args = 0
 562 0000 10B5     		push	{r4, lr}
 563              		.cfi_def_cfa_offset 8
 564              		.cfi_offset 4, -8
 565              		.cfi_offset 14, -4
 566              	.LVL54:
 567              	.LBB4:
 155:main.c        ****     for (int i = N-1; i > 0; i--){
 568              		.loc 1 155 0
 569 0002 6324     		movs	r4, #99
 570 0004 0EE0     		b	.L44
 571              	.LVL55:
 572              	.L45:
 156:main.c        ****         VDAC_SetValue(duck_audio_vector[i]*1000);
 573              		.loc 1 156 0 discriminator 3
 574 0006 0949     		ldr	r1, .L47
 575 0008 094B     		ldr	r3, .L47+4
 576 000a 53F82400 		ldr	r0, [r3, r4, lsl #2]	@ float
 577 000e FFF7FEFF 		bl	__aeabi_fmul
 578              	.LVL56:
 579 0012 FFF7FEFF 		bl	__aeabi_f2uiz
 580              	.LVL57:
ARM GAS  C:\Users\brenn\AppData\Local\Temp\ccOzUpww.s 			page 14


 581 0016 C0B2     		uxtb	r0, r0
 582 0018 FFF7FEFF 		bl	VDAC_SetValue
 583              	.LVL58:
 157:main.c        ****         CyDelay(2);
 584              		.loc 1 157 0 discriminator 3
 585 001c 0220     		movs	r0, #2
 586 001e FFF7FEFF 		bl	CyDelay
 587              	.LVL59:
 155:main.c        ****     for (int i = N-1; i > 0; i--){
 588              		.loc 1 155 0 discriminator 3
 589 0022 013C     		subs	r4, r4, #1
 590              	.LVL60:
 591              	.L44:
 155:main.c        ****     for (int i = N-1; i > 0; i--){
 592              		.loc 1 155 0 is_stmt 0 discriminator 1
 593 0024 002C     		cmp	r4, #0
 594 0026 EEDC     		bgt	.L45
 595              	.LBE4:
 158:main.c        ****     }
 159:main.c        **** }
 596              		.loc 1 159 0 is_stmt 1
 597 0028 10BD     		pop	{r4, pc}
 598              	.LVL61:
 599              	.L48:
 600 002a 00BF     		.align	2
 601              	.L47:
 602 002c 00007A44 		.word	1148846080
 603 0030 00000000 		.word	duck_audio_vector
 604              		.cfi_endproc
 605              	.LFE78:
 606              		.size	play_sound_duck, .-play_sound_duck
 607              		.section	.text.dino_jump,"ax",%progbits
 608              		.align	2
 609              		.global	dino_jump
 610              		.thumb
 611              		.thumb_func
 612              		.type	dino_jump, %function
 613              	dino_jump:
 614              	.LFB79:
 160:main.c        **** 
 161:main.c        **** void dino_jump() {
 615              		.loc 1 161 0
 616              		.cfi_startproc
 617              		@ args = 0, pretend = 0, frame = 0
 618              		@ frame_needed = 0, uses_anonymous_args = 0
 619 0000 08B5     		push	{r3, lr}
 620              		.cfi_def_cfa_offset 8
 621              		.cfi_offset 3, -8
 622              		.cfi_offset 14, -4
 162:main.c        ****     if (!is_running) {
 623              		.loc 1 162 0
 624 0002 114B     		ldr	r3, .L52
 625 0004 9B78     		ldrb	r3, [r3, #2]	@ zero_extendqisi2
 626 0006 23B9     		cbnz	r3, .L50
 163:main.c        ****         is_running = true;
 627              		.loc 1 163 0
 628 0008 0122     		movs	r2, #1
ARM GAS  C:\Users\brenn\AppData\Local\Temp\ccOzUpww.s 			page 15


 629 000a 0F4B     		ldr	r3, .L52
 630 000c 9A70     		strb	r2, [r3, #2]
 164:main.c        ****         Timer_ISR_Enable();
 631              		.loc 1 164 0
 632 000e FFF7FEFF 		bl	Timer_ISR_Enable
 633              	.LVL62:
 634              	.L50:
 165:main.c        ****     }
 166:main.c        ****     servo_press_spacebar();
 635              		.loc 1 166 0
 636 0012 FFF7FEFF 		bl	servo_press_spacebar
 637              	.LVL63:
 167:main.c        ****     set_LED1_and_LED2(HIGH);
 638              		.loc 1 167 0
 639 0016 0120     		movs	r0, #1
 640 0018 FFF7FEFF 		bl	set_LED1_and_LED2
 641              	.LVL64:
 168:main.c        ****     send_data_to_PC("Jump\n");
 642              		.loc 1 168 0
 643 001c 0B48     		ldr	r0, .L52+4
 644 001e FFF7FEFF 		bl	send_data_to_PC
 645              	.LVL65:
 169:main.c        ****     print_on_LCD("Jump", LEFT_ROW, LEFT_COLUMN);
 646              		.loc 1 169 0
 647 0022 0022     		movs	r2, #0
 648 0024 1146     		mov	r1, r2
 649 0026 0A48     		ldr	r0, .L52+8
 650 0028 FFF7FEFF 		bl	print_on_LCD
 651              	.LVL66:
 170:main.c        ****     play_sound_jump();
 652              		.loc 1 170 0
 653 002c FFF7FEFF 		bl	play_sound_jump
 654              	.LVL67:
 171:main.c        ****     CyDelay(DEFAULT_DELAY);
 655              		.loc 1 171 0
 656 0030 1E20     		movs	r0, #30
 657 0032 FFF7FEFF 		bl	CyDelay
 658              	.LVL68:
 172:main.c        ****     servo_release_spacebar();
 659              		.loc 1 172 0
 660 0036 FFF7FEFF 		bl	servo_release_spacebar
 661              	.LVL69:
 173:main.c        ****     set_LED1_and_LED2(LOW);
 662              		.loc 1 173 0
 663 003a 0020     		movs	r0, #0
 664 003c FFF7FEFF 		bl	set_LED1_and_LED2
 665              	.LVL70:
 174:main.c        ****     LCD_ClearDisplay();
 666              		.loc 1 174 0
 667 0040 0120     		movs	r0, #1
 668 0042 FFF7FEFF 		bl	LCD_WriteControl
 669              	.LVL71:
 670 0046 08BD     		pop	{r3, pc}
 671              	.L53:
 672              		.align	2
 673              	.L52:
 674 0048 00000000 		.word	.LANCHOR0
ARM GAS  C:\Users\brenn\AppData\Local\Temp\ccOzUpww.s 			page 16


 675 004c 00000000 		.word	.LC0
 676 0050 08000000 		.word	.LC1
 677              		.cfi_endproc
 678              	.LFE79:
 679              		.size	dino_jump, .-dino_jump
 680              		.section	.text.dino_duck,"ax",%progbits
 681              		.align	2
 682              		.global	dino_duck
 683              		.thumb
 684              		.thumb_func
 685              		.type	dino_duck, %function
 686              	dino_duck:
 687              	.LFB80:
 175:main.c        **** }
 176:main.c        **** 
 177:main.c        **** 
 178:main.c        **** void dino_duck() {
 688              		.loc 1 178 0
 689              		.cfi_startproc
 690              		@ args = 0, pretend = 0, frame = 0
 691              		@ frame_needed = 0, uses_anonymous_args = 0
 692 0000 08B5     		push	{r3, lr}
 693              		.cfi_def_cfa_offset 8
 694              		.cfi_offset 3, -8
 695              		.cfi_offset 14, -4
 179:main.c        ****     servo_press_down_arrow_key();
 696              		.loc 1 179 0
 697 0002 FFF7FEFF 		bl	servo_press_down_arrow_key
 698              	.LVL72:
 180:main.c        ****     set_LED3_and_LED4(HIGH);
 699              		.loc 1 180 0
 700 0006 0120     		movs	r0, #1
 701 0008 FFF7FEFF 		bl	set_LED3_and_LED4
 702              	.LVL73:
 181:main.c        ****     send_data_to_PC("Duck\n");
 703              		.loc 1 181 0
 704 000c 0A48     		ldr	r0, .L56
 705 000e FFF7FEFF 		bl	send_data_to_PC
 706              	.LVL74:
 182:main.c        ****     print_on_LCD("Duck", LEFT_ROW, LEFT_COLUMN);
 707              		.loc 1 182 0
 708 0012 0022     		movs	r2, #0
 709 0014 1146     		mov	r1, r2
 710 0016 0948     		ldr	r0, .L56+4
 711 0018 FFF7FEFF 		bl	print_on_LCD
 712              	.LVL75:
 183:main.c        ****     play_sound_duck();
 713              		.loc 1 183 0
 714 001c FFF7FEFF 		bl	play_sound_duck
 715              	.LVL76:
 184:main.c        ****     CyDelay(DEFAULT_DELAY);
 716              		.loc 1 184 0
 717 0020 1E20     		movs	r0, #30
 718 0022 FFF7FEFF 		bl	CyDelay
 719              	.LVL77:
 185:main.c        ****     servo_release_down_arrow_key();
 720              		.loc 1 185 0
ARM GAS  C:\Users\brenn\AppData\Local\Temp\ccOzUpww.s 			page 17


 721 0026 FFF7FEFF 		bl	servo_release_down_arrow_key
 722              	.LVL78:
 186:main.c        ****     set_LED3_and_LED4(LOW);
 723              		.loc 1 186 0
 724 002a 0020     		movs	r0, #0
 725 002c FFF7FEFF 		bl	set_LED3_and_LED4
 726              	.LVL79:
 187:main.c        ****     LCD_ClearDisplay();
 727              		.loc 1 187 0
 728 0030 0120     		movs	r0, #1
 729 0032 FFF7FEFF 		bl	LCD_WriteControl
 730              	.LVL80:
 731 0036 08BD     		pop	{r3, pc}
 732              	.L57:
 733              		.align	2
 734              	.L56:
 735 0038 10000000 		.word	.LC2
 736 003c 18000000 		.word	.LC3
 737              		.cfi_endproc
 738              	.LFE80:
 739              		.size	dino_duck, .-dino_duck
 740              		.section	.text.RX_ISR_Handler,"ax",%progbits
 741              		.align	2
 742              		.global	RX_ISR_Handler
 743              		.thumb
 744              		.thumb_func
 745              		.type	RX_ISR_Handler, %function
 746              	RX_ISR_Handler:
 747              	.LFB83:
 188:main.c        **** }
 189:main.c        **** 
 190:main.c        **** void dino_reset() {
 191:main.c        ****     is_running = false;
 192:main.c        ****     Timer_ISR_Disable();
 193:main.c        ****     score = 0;
 194:main.c        **** }
 195:main.c        **** 
 196:main.c        **** void dino_increase_score() {
 197:main.c        ****     score += SCORE_INCREMENT_PER_SECOND;
 198:main.c        ****     sprintf(score_message, "%d", score); // Convert integer to string
 199:main.c        ****     print_on_LCD(score_message, RIGHT_ROW, LEFT_COLUMN);
 200:main.c        ****     
 201:main.c        **** }
 202:main.c        **** 
 203:main.c        **** // Interrupts
 204:main.c        **** CY_ISR(RX_ISR_Handler) {
 748              		.loc 1 204 0
 749              		.cfi_startproc
 750              		@ args = 0, pretend = 0, frame = 0
 751              		@ frame_needed = 0, uses_anonymous_args = 0
 752 0000 38B5     		push	{r3, r4, r5, lr}
 753              		.cfi_def_cfa_offset 16
 754              		.cfi_offset 3, -16
 755              		.cfi_offset 4, -12
 756              		.cfi_offset 5, -8
 757              		.cfi_offset 14, -4
 758              	.L66:
ARM GAS  C:\Users\brenn\AppData\Local\Temp\ccOzUpww.s 			page 18


 205:main.c        ****     uint8_t status = 0;
 206:main.c        ****     do{
 207:main.c        ****         status = UART_ReadRxStatus (); // Checks if no UART Rx errors
 759              		.loc 1 207 0
 760 0002 FFF7FEFF 		bl	UART_ReadRxStatus
 761              	.LVL81:
 762 0006 0446     		mov	r4, r0
 763              	.LVL82:
 208:main.c        ****         if ((status & UART_RX_STS_PAR_ERROR) |
 764              		.loc 1 208 0
 765 0008 10F01E0F 		tst	r0, #30
 766 000c 06D0     		beq	.L59
 209:main.c        ****             (status & UART_RX_STS_STOP_ERROR) |
 210:main.c        ****             (status & UART_RX_STS_BREAK) |
 211:main.c        ****             (status & UART_RX_STS_OVERRUN) ) {
 212:main.c        ****             LCD_Position (1,0);
 767              		.loc 1 212 0
 768 000e 0021     		movs	r1, #0
 769 0010 0120     		movs	r0, #1
 770              	.LVL83:
 771 0012 FFF7FEFF 		bl	LCD_Position
 772              	.LVL84:
 213:main.c        ****             LCD_PrintString("UART err"); // Parity , framing , break or overrun error
 773              		.loc 1 213 0
 774 0016 2448     		ldr	r0, .L68
 775 0018 FFF7FEFF 		bl	LCD_PrintString
 776              	.LVL85:
 777              	.L59:
 778 001c 04F02004 		and	r4, r4, #32
 214:main.c        ****         }
 215:main.c        ****         if ((status & UART_RX_STS_FIFO_NOTEMPTY) != 0){ // Check that rx buffer is not empty and ge
 779              		.loc 1 215 0
 780 0020 04F0FF05 		and	r5, r4, #255
 781 0024 002C     		cmp	r4, #0
 782 0026 3BD0     		beq	.L60
 216:main.c        ****             uart_rx_buffer = UART_ReadRxData();
 783              		.loc 1 216 0
 784 0028 FFF7FEFF 		bl	UART_ReadRxData
 785              	.LVL86:
 786 002c 1F4B     		ldr	r3, .L68+4
 787 002e 1870     		strb	r0, [r3]
 217:main.c        ****             if (uart_rx_buffer != '\n') {   
 788              		.loc 1 217 0
 789 0030 0A28     		cmp	r0, #10
 790 0032 1BD0     		beq	.L61
 218:main.c        ****                 if (uart_rx_counter < UART_RX_DATA_LENGTH) {
 791              		.loc 1 218 0
 792 0034 1E4B     		ldr	r3, .L68+8
 793 0036 5B68     		ldr	r3, [r3, #4]
 794 0038 042B     		cmp	r3, #4
 795 003a 0BDC     		bgt	.L62
 219:main.c        ****                     uart_rx_data[uart_rx_counter] = uart_rx_buffer;
 796              		.loc 1 219 0
 797 003c 1D4A     		ldr	r2, .L68+12
 798 003e D054     		strb	r0, [r2, r3]
 220:main.c        ****                     UART_PutString("Received: ");
 799              		.loc 1 220 0
ARM GAS  C:\Users\brenn\AppData\Local\Temp\ccOzUpww.s 			page 19


 800 0040 1D48     		ldr	r0, .L68+16
 801 0042 FFF7FEFF 		bl	UART_PutString
 802              	.LVL87:
 221:main.c        ****                     UART_PutChar(uart_rx_buffer);
 803              		.loc 1 221 0
 804 0046 194B     		ldr	r3, .L68+4
 805 0048 1878     		ldrb	r0, [r3]	@ zero_extendqisi2
 806 004a FFF7FEFF 		bl	UART_PutChar
 807              	.LVL88:
 222:main.c        ****                     UART_PutString("\n");
 808              		.loc 1 222 0
 809 004e 1B48     		ldr	r0, .L68+20
 810 0050 FFF7FEFF 		bl	UART_PutString
 811              	.LVL89:
 812              	.L62:
 223:main.c        ****                 }
 224:main.c        ****                 if (uart_rx_counter == UART_RX_DATA_LENGTH) {
 813              		.loc 1 224 0
 814 0054 164B     		ldr	r3, .L68+8
 815 0056 5B68     		ldr	r3, [r3, #4]
 816 0058 052B     		cmp	r3, #5
 817 005a 03D1     		bne	.L63
 225:main.c        ****                     memset(uart_rx_data, 0, sizeof(uart_rx_data));
 818              		.loc 1 225 0
 819 005c 154A     		ldr	r2, .L68+12
 820 005e 0021     		movs	r1, #0
 821 0060 1160     		str	r1, [r2]	@ unaligned
 822 0062 1171     		strb	r1, [r2, #4]
 823              	.L63:
 226:main.c        ****                 }
 227:main.c        ****                 uart_rx_counter += 1;
 824              		.loc 1 227 0
 825 0064 0133     		adds	r3, r3, #1
 826 0066 124A     		ldr	r2, .L68+8
 827 0068 5360     		str	r3, [r2, #4]
 828 006a 19E0     		b	.L60
 829              	.L61:
 228:main.c        ****             }
 229:main.c        ****             else {
 230:main.c        ****                 uart_rx_data[uart_rx_counter] = '\0'; // add null terminator
 830              		.loc 1 230 0
 831 006c 104B     		ldr	r3, .L68+8
 832 006e 5B68     		ldr	r3, [r3, #4]
 833 0070 1048     		ldr	r0, .L68+12
 834 0072 0022     		movs	r2, #0
 835 0074 C254     		strb	r2, [r0, r3]
 231:main.c        ****                 if (strncmp(uart_rx_data, "jump", 4) == 0) {
 836              		.loc 1 231 0
 837 0076 0422     		movs	r2, #4
 838 0078 1149     		ldr	r1, .L68+24
 839 007a FFF7FEFF 		bl	strncmp
 840              	.LVL90:
 841 007e 08B9     		cbnz	r0, .L64
 232:main.c        ****                     dino_jump();
 842              		.loc 1 232 0
 843 0080 FFF7FEFF 		bl	dino_jump
 844              	.LVL91:
ARM GAS  C:\Users\brenn\AppData\Local\Temp\ccOzUpww.s 			page 20


 845              	.L64:
 233:main.c        ****                 }
 234:main.c        ****                 if (strncmp(uart_rx_data, "duck", 4) == 0) {
 846              		.loc 1 234 0
 847 0084 0422     		movs	r2, #4
 848 0086 0F49     		ldr	r1, .L68+28
 849 0088 0A48     		ldr	r0, .L68+12
 850 008a FFF7FEFF 		bl	strncmp
 851              	.LVL92:
 852 008e 08B9     		cbnz	r0, .L65
 235:main.c        ****                     dino_duck();
 853              		.loc 1 235 0
 854 0090 FFF7FEFF 		bl	dino_duck
 855              	.LVL93:
 856              	.L65:
 236:main.c        ****                 }
 237:main.c        ****                 memset(uart_rx_data, 0, sizeof(uart_rx_data));
 857              		.loc 1 237 0
 858 0094 074A     		ldr	r2, .L68+12
 859 0096 0023     		movs	r3, #0
 860 0098 1360     		str	r3, [r2]	@ unaligned
 861 009a 1371     		strb	r3, [r2, #4]
 238:main.c        ****                 uart_rx_counter = 0;
 862              		.loc 1 238 0
 863 009c 044A     		ldr	r2, .L68+8
 864 009e 5360     		str	r3, [r2, #4]
 865              	.L60:
 239:main.c        ****             }
 240:main.c        ****         }
 241:main.c        ****     } while (( status & UART_RX_STS_FIFO_NOTEMPTY) != 0);
 866              		.loc 1 241 0
 867 00a0 002D     		cmp	r5, #0
 868 00a2 AED1     		bne	.L66
 242:main.c        **** }
 869              		.loc 1 242 0
 870 00a4 38BD     		pop	{r3, r4, r5, pc}
 871              	.L69:
 872 00a6 00BF     		.align	2
 873              	.L68:
 874 00a8 20000000 		.word	.LC4
 875 00ac 00000000 		.word	uart_rx_buffer
 876 00b0 00000000 		.word	.LANCHOR0
 877 00b4 00000000 		.word	uart_rx_data
 878 00b8 2C000000 		.word	.LC5
 879 00bc 38000000 		.word	.LC6
 880 00c0 3C000000 		.word	.LC7
 881 00c4 44000000 		.word	.LC8
 882              		.cfi_endproc
 883              	.LFE83:
 884              		.size	RX_ISR_Handler, .-RX_ISR_Handler
 885              		.section	.text.dino_reset,"ax",%progbits
 886              		.align	2
 887              		.global	dino_reset
 888              		.thumb
 889              		.thumb_func
 890              		.type	dino_reset, %function
 891              	dino_reset:
ARM GAS  C:\Users\brenn\AppData\Local\Temp\ccOzUpww.s 			page 21


 892              	.LFB81:
 190:main.c        ****     is_running = false;
 893              		.loc 1 190 0
 894              		.cfi_startproc
 895              		@ args = 0, pretend = 0, frame = 0
 896              		@ frame_needed = 0, uses_anonymous_args = 0
 897 0000 38B5     		push	{r3, r4, r5, lr}
 898              		.cfi_def_cfa_offset 16
 899              		.cfi_offset 3, -16
 900              		.cfi_offset 4, -12
 901              		.cfi_offset 5, -8
 902              		.cfi_offset 14, -4
 191:main.c        ****     Timer_ISR_Disable();
 903              		.loc 1 191 0
 904 0002 034C     		ldr	r4, .L72
 905 0004 0025     		movs	r5, #0
 906 0006 A570     		strb	r5, [r4, #2]
 192:main.c        ****     score = 0;
 907              		.loc 1 192 0
 908 0008 FFF7FEFF 		bl	Timer_ISR_Disable
 909              	.LVL94:
 193:main.c        **** }
 910              		.loc 1 193 0
 911 000c A560     		str	r5, [r4, #8]
 912 000e 38BD     		pop	{r3, r4, r5, pc}
 913              	.L73:
 914              		.align	2
 915              	.L72:
 916 0010 00000000 		.word	.LANCHOR0
 917              		.cfi_endproc
 918              	.LFE81:
 919              		.size	dino_reset, .-dino_reset
 920              		.section	.text.dino_increase_score,"ax",%progbits
 921              		.align	2
 922              		.global	dino_increase_score
 923              		.thumb
 924              		.thumb_func
 925              		.type	dino_increase_score, %function
 926              	dino_increase_score:
 927              	.LFB82:
 196:main.c        ****     score += SCORE_INCREMENT_PER_SECOND;
 928              		.loc 1 196 0
 929              		.cfi_startproc
 930              		@ args = 0, pretend = 0, frame = 0
 931              		@ frame_needed = 0, uses_anonymous_args = 0
 932 0000 10B5     		push	{r4, lr}
 933              		.cfi_def_cfa_offset 8
 934              		.cfi_offset 4, -8
 935              		.cfi_offset 14, -4
 197:main.c        ****     sprintf(score_message, "%d", score); // Convert integer to string
 936              		.loc 1 197 0
 937 0002 074B     		ldr	r3, .L76
 938 0004 9A68     		ldr	r2, [r3, #8]
 939 0006 0A32     		adds	r2, r2, #10
 940 0008 9A60     		str	r2, [r3, #8]
 198:main.c        ****     print_on_LCD(score_message, RIGHT_ROW, LEFT_COLUMN);
 941              		.loc 1 198 0
ARM GAS  C:\Users\brenn\AppData\Local\Temp\ccOzUpww.s 			page 22


 942 000a 064C     		ldr	r4, .L76+4
 943 000c 0649     		ldr	r1, .L76+8
 944 000e 2046     		mov	r0, r4
 945 0010 FFF7FEFF 		bl	sprintf
 946              	.LVL95:
 199:main.c        ****     
 947              		.loc 1 199 0
 948 0014 0022     		movs	r2, #0
 949 0016 0121     		movs	r1, #1
 950 0018 2046     		mov	r0, r4
 951 001a FFF7FEFF 		bl	print_on_LCD
 952              	.LVL96:
 953 001e 10BD     		pop	{r4, pc}
 954              	.L77:
 955              		.align	2
 956              	.L76:
 957 0020 00000000 		.word	.LANCHOR0
 958 0024 00000000 		.word	score_message
 959 0028 4C000000 		.word	.LC9
 960              		.cfi_endproc
 961              	.LFE82:
 962              		.size	dino_increase_score, .-dino_increase_score
 963              		.section	.text.Timer_ISR_Handler,"ax",%progbits
 964              		.align	2
 965              		.global	Timer_ISR_Handler
 966              		.thumb
 967              		.thumb_func
 968              		.type	Timer_ISR_Handler, %function
 969              	Timer_ISR_Handler:
 970              	.LFB84:
 243:main.c        **** 
 244:main.c        **** CY_ISR(Timer_ISR_Handler){  
 971              		.loc 1 244 0
 972              		.cfi_startproc
 973              		@ args = 0, pretend = 0, frame = 0
 974              		@ frame_needed = 0, uses_anonymous_args = 0
 975 0000 08B5     		push	{r3, lr}
 976              		.cfi_def_cfa_offset 8
 977              		.cfi_offset 3, -8
 978              		.cfi_offset 14, -4
 245:main.c        ****     dino_increase_score();
 979              		.loc 1 245 0
 980 0002 FFF7FEFF 		bl	dino_increase_score
 981              	.LVL97:
 246:main.c        ****     Timer_ReadStatusRegister();
 982              		.loc 1 246 0
 983 0006 FFF7FEFF 		bl	Timer_ReadStatusRegister
 984              	.LVL98:
 985 000a 08BD     		pop	{r3, pc}
 986              		.cfi_endproc
 987              	.LFE84:
 988              		.size	Timer_ISR_Handler, .-Timer_ISR_Handler
 989              		.section	.text.main,"ax",%progbits
 990              		.align	2
 991              		.global	main
 992              		.thumb
 993              		.thumb_func
ARM GAS  C:\Users\brenn\AppData\Local\Temp\ccOzUpww.s 			page 23


 994              		.type	main, %function
 995              	main:
 996              	.LFB85:
 247:main.c        **** }
 248:main.c        **** 
 249:main.c        **** int main(void) {
 997              		.loc 1 249 0
 998              		.cfi_startproc
 999              		@ Volatile: function does not return.
 1000              		@ args = 0, pretend = 0, frame = 0
 1001              		@ frame_needed = 0, uses_anonymous_args = 0
 1002 0000 08B5     		push	{r3, lr}
 1003              		.cfi_def_cfa_offset 8
 1004              		.cfi_offset 3, -8
 1005              		.cfi_offset 14, -4
 250:main.c        ****     CyGlobalIntEnable; /* Enable global interrupts. */
 1006              		.loc 1 250 0
 1007              		.syntax unified
 1008              	@ 250 "main.c" 1
 1009 0002 62B6     		CPSIE   i
 1010              	@ 0 "" 2
 251:main.c        ****     RX_ISR_StartEx(RX_ISR_Handler);
 1011              		.loc 1 251 0
 1012              		.thumb
 1013              		.syntax unified
 1014 0004 2448     		ldr	r0, .L88
 1015 0006 FFF7FEFF 		bl	RX_ISR_StartEx
 1016              	.LVL99:
 252:main.c        ****     UART_Start();
 1017              		.loc 1 252 0
 1018 000a FFF7FEFF 		bl	UART_Start
 1019              	.LVL100:
 253:main.c        ****     Timer_ISR_StartEx(Timer_ISR_Handler);
 1020              		.loc 1 253 0
 1021 000e 2348     		ldr	r0, .L88+4
 1022 0010 FFF7FEFF 		bl	Timer_ISR_StartEx
 1023              	.LVL101:
 254:main.c        ****     Timer_Start();
 1024              		.loc 1 254 0
 1025 0014 FFF7FEFF 		bl	Timer_Start
 1026              	.LVL102:
 255:main.c        ****     Clock_Start();
 1027              		.loc 1 255 0
 1028 0018 FFF7FEFF 		bl	Clock_Start
 1029              	.LVL103:
 256:main.c        ****     PWM_Start();
 1030              		.loc 1 256 0
 1031 001c FFF7FEFF 		bl	PWM_Start
 1032              	.LVL104:
 257:main.c        ****     VDAC_Start();
 1033              		.loc 1 257 0
 1034 0020 FFF7FEFF 		bl	VDAC_Start
 1035              	.LVL105:
 258:main.c        ****     AMux_Start();
 1036              		.loc 1 258 0
 1037 0024 FFF7FEFF 		bl	AMux_Start
 1038              	.LVL106:
ARM GAS  C:\Users\brenn\AppData\Local\Temp\ccOzUpww.s 			page 24


 259:main.c        ****     ADC_Start();
 1039              		.loc 1 259 0
 1040 0028 FFF7FEFF 		bl	ADC_Start
 1041              	.LVL107:
 260:main.c        ****     ADC_StartConvert();
 1042              		.loc 1 260 0
 1043 002c FFF7FEFF 		bl	ADC_StartConvert
 1044              	.LVL108:
 261:main.c        ****     LCD_Start();
 1045              		.loc 1 261 0
 1046 0030 FFF7FEFF 		bl	LCD_Start
 1047              	.LVL109:
 262:main.c        ****     initialize_audio_vector(jump_audio_vector, 0);
 1048              		.loc 1 262 0
 1049 0034 0021     		movs	r1, #0
 1050 0036 1A48     		ldr	r0, .L88+8
 1051 0038 FFF7FEFF 		bl	initialize_audio_vector
 1052              	.LVL110:
 263:main.c        ****     initialize_audio_vector(duck_audio_vector, 1);
 1053              		.loc 1 263 0
 1054 003c 0121     		movs	r1, #1
 1055 003e 1948     		ldr	r0, .L88+12
 1056 0040 FFF7FEFF 		bl	initialize_audio_vector
 1057              	.LVL111:
 264:main.c        ****     initialize_servos();
 1058              		.loc 1 264 0
 1059 0044 FFF7FEFF 		bl	initialize_servos
 1060              	.LVL112:
 265:main.c        ****     
 266:main.c        ****     is_running = false;
 1061              		.loc 1 266 0
 1062 0048 0022     		movs	r2, #0
 1063 004a 174B     		ldr	r3, .L88+16
 1064 004c 9A70     		strb	r2, [r3, #2]
 267:main.c        ****     Timer_ISR_Disable();
 1065              		.loc 1 267 0
 1066 004e FFF7FEFF 		bl	Timer_ISR_Disable
 1067              	.LVL113:
 1068              	.L86:
 268:main.c        ****     for(;;) {
 269:main.c        ****         
 270:main.c        ****         detect_obstacle();
 1069              		.loc 1 270 0
 1070 0052 FFF7FEFF 		bl	detect_obstacle
 1071              	.LVL114:
 271:main.c        ****             
 272:main.c        ****         if  (SW_1_Read() || keypadScan() == JUMP_KEY || is_dino_close_ground_obstacle()) {
 1072              		.loc 1 272 0
 1073 0056 FFF7FEFF 		bl	SW_1_Read
 1074              	.LVL115:
 1075 005a 30B9     		cbnz	r0, .L81
 1076              		.loc 1 272 0 is_stmt 0 discriminator 1
 1077 005c FFF7FEFF 		bl	keypadScan
 1078              	.LVL116:
 1079 0060 3128     		cmp	r0, #49
 1080 0062 02D0     		beq	.L81
 1081              		.loc 1 272 0 discriminator 2
ARM GAS  C:\Users\brenn\AppData\Local\Temp\ccOzUpww.s 			page 25


 1082 0064 FFF7FEFF 		bl	is_dino_close_ground_obstacle
 1083              	.LVL117:
 1084 0068 08B1     		cbz	r0, .L82
 1085              	.L81:
 273:main.c        ****             dino_jump();
 1086              		.loc 1 273 0 is_stmt 1
 1087 006a FFF7FEFF 		bl	dino_jump
 1088              	.LVL118:
 1089              	.L82:
 274:main.c        ****         }
 275:main.c        **** 
 276:main.c        ****         if (SW_2_Read() || keypadScan() == DUCK_KEY || is_dino_close_flying_obstacle()) {
 1090              		.loc 1 276 0
 1091 006e FFF7FEFF 		bl	SW_2_Read
 1092              	.LVL119:
 1093 0072 30B9     		cbnz	r0, .L83
 1094              		.loc 1 276 0 is_stmt 0 discriminator 1
 1095 0074 FFF7FEFF 		bl	keypadScan
 1096              	.LVL120:
 1097 0078 3328     		cmp	r0, #51
 1098 007a 02D0     		beq	.L83
 1099              		.loc 1 276 0 discriminator 2
 1100 007c FFF7FEFF 		bl	is_dino_close_flying_obstacle
 1101              	.LVL121:
 1102 0080 08B1     		cbz	r0, .L84
 1103              	.L83:
 277:main.c        ****             dino_duck();
 1104              		.loc 1 277 0 is_stmt 1
 1105 0082 FFF7FEFF 		bl	dino_duck
 1106              	.LVL122:
 1107              	.L84:
 278:main.c        ****         }
 279:main.c        **** 
 280:main.c        ****         if (SW_3_Read()) {
 1108              		.loc 1 280 0
 1109 0086 FFF7FEFF 		bl	SW_3_Read
 1110              	.LVL123:
 1111 008a 08B1     		cbz	r0, .L85
 281:main.c        ****             dino_reset();
 1112              		.loc 1 281 0
 1113 008c FFF7FEFF 		bl	dino_reset
 1114              	.LVL124:
 1115              	.L85:
 282:main.c        ****         }    
 283:main.c        **** 
 284:main.c        ****         CyDelay(10);  
 1116              		.loc 1 284 0
 1117 0090 0A20     		movs	r0, #10
 1118 0092 FFF7FEFF 		bl	CyDelay
 1119              	.LVL125:
 285:main.c        ****     }
 1120              		.loc 1 285 0
 1121 0096 DCE7     		b	.L86
 1122              	.L89:
 1123              		.align	2
 1124              	.L88:
 1125 0098 00000000 		.word	RX_ISR_Handler
ARM GAS  C:\Users\brenn\AppData\Local\Temp\ccOzUpww.s 			page 26


 1126 009c 00000000 		.word	Timer_ISR_Handler
 1127 00a0 00000000 		.word	jump_audio_vector
 1128 00a4 00000000 		.word	duck_audio_vector
 1129 00a8 00000000 		.word	.LANCHOR0
 1130              		.cfi_endproc
 1131              	.LFE85:
 1132              		.size	main, .-main
 1133              		.global	is_flying_obstacle_detected
 1134              		.global	is_ground_obstacle_detected
 1135              		.global	is_running
 1136              		.comm	duck_audio_vector,400,4
 1137              		.comm	jump_audio_vector,400,4
 1138              		.global	count
 1139              		.global	score
 1140              		.global	speed
 1141              		.global	uart_rx_counter
 1142              		.comm	score_message,32,4
 1143              		.comm	uart_rx_data,5,4
 1144              		.comm	uart_rx_buffer,1,1
 1145              		.section	.rodata.str1.4,"aMS",%progbits,1
 1146              		.align	2
 1147              	.LC0:
 1148 0000 4A756D70 		.ascii	"Jump\012\000"
 1148      0A00
 1149 0006 0000     		.space	2
 1150              	.LC1:
 1151 0008 4A756D70 		.ascii	"Jump\000"
 1151      00
 1152 000d 000000   		.space	3
 1153              	.LC2:
 1154 0010 4475636B 		.ascii	"Duck\012\000"
 1154      0A00
 1155 0016 0000     		.space	2
 1156              	.LC3:
 1157 0018 4475636B 		.ascii	"Duck\000"
 1157      00
 1158 001d 000000   		.space	3
 1159              	.LC4:
 1160 0020 55415254 		.ascii	"UART err\000"
 1160      20657272 
 1160      00
 1161 0029 000000   		.space	3
 1162              	.LC5:
 1163 002c 52656365 		.ascii	"Received: \000"
 1163      69766564 
 1163      3A2000
 1164 0037 00       		.space	1
 1165              	.LC6:
 1166 0038 0A00     		.ascii	"\012\000"
 1167 003a 0000     		.space	2
 1168              	.LC7:
 1169 003c 6A756D70 		.ascii	"jump\000"
 1169      00
 1170 0041 000000   		.space	3
 1171              	.LC8:
 1172 0044 6475636B 		.ascii	"duck\000"
 1172      00
ARM GAS  C:\Users\brenn\AppData\Local\Temp\ccOzUpww.s 			page 27


 1173 0049 000000   		.space	3
 1174              	.LC9:
 1175 004c 256400   		.ascii	"%d\000"
 1176              		.bss
 1177              		.align	2
 1178              		.set	.LANCHOR0,. + 0
 1179              		.type	is_ground_obstacle_detected, %object
 1180              		.size	is_ground_obstacle_detected, 1
 1181              	is_ground_obstacle_detected:
 1182 0000 00       		.space	1
 1183              		.type	is_flying_obstacle_detected, %object
 1184              		.size	is_flying_obstacle_detected, 1
 1185              	is_flying_obstacle_detected:
 1186 0001 00       		.space	1
 1187              		.type	is_running, %object
 1188              		.size	is_running, 1
 1189              	is_running:
 1190 0002 00       		.space	1
 1191 0003 00       		.space	1
 1192              		.type	uart_rx_counter, %object
 1193              		.size	uart_rx_counter, 4
 1194              	uart_rx_counter:
 1195 0004 00000000 		.space	4
 1196              		.type	score, %object
 1197              		.size	score, 4
 1198              	score:
 1199 0008 00000000 		.space	4
 1200              		.type	count, %object
 1201              		.size	count, 4
 1202              	count:
 1203 000c 00000000 		.space	4
 1204              		.type	speed, %object
 1205              		.size	speed, 4
 1206              	speed:
 1207 0010 00000000 		.space	4
 1208              		.text
 1209              	.Letext0:
 1210              		.file 2 "c:\\program files (x86)\\cypress\\psoc creator\\4.4\\psoc creator\\import\\gnu\\arm\\5.4.
 1211              		.file 3 "c:\\program files (x86)\\cypress\\psoc creator\\4.4\\psoc creator\\import\\gnu\\arm\\5.4.
 1212              		.file 4 "Generated_Source\\PSoC5/cytypes.h"
 1213              		.file 5 "Generated_Source\\PSoC5/core_cm3.h"
 1214              		.file 6 "Generated_Source\\PSoC5/PWM.h"
 1215              		.file 7 "Generated_Source\\PSoC5/LCD.h"
 1216              		.file 8 "Generated_Source\\PSoC5/AMux.h"
 1217              		.file 9 "Generated_Source\\PSoC5/CyLib.h"
 1218              		.file 10 "Generated_Source\\PSoC5/ADC.h"
 1219              		.file 11 "Generated_Source\\PSoC5/LED_1.h"
 1220              		.file 12 "Generated_Source\\PSoC5/LED_2.h"
 1221              		.file 13 "Generated_Source\\PSoC5/LED_3.h"
 1222              		.file 14 "Generated_Source\\PSoC5/LED_4.h"
 1223              		.file 15 "Generated_Source\\PSoC5/UART.h"
 1224              		.file 16 "Generated_Source\\PSoC5/VDAC.h"
 1225              		.file 17 "Generated_Source\\PSoC5/Timer_ISR.h"
 1226              		.file 18 "c:\\program files (x86)\\cypress\\psoc creator\\4.4\\psoc creator\\import\\gnu\\arm\\5.4
 1227              		.file 19 "c:\\program files (x86)\\cypress\\psoc creator\\4.4\\psoc creator\\import\\gnu\\arm\\5.4
 1228              		.file 20 "Generated_Source\\PSoC5/Timer.h"
 1229              		.file 21 "Generated_Source\\PSoC5/RX_ISR.h"
ARM GAS  C:\Users\brenn\AppData\Local\Temp\ccOzUpww.s 			page 28


 1230              		.file 22 "Generated_Source\\PSoC5/Clock.h"
 1231              		.file 23 "Generated_Source\\PSoC5/SW_1.h"
 1232              		.file 24 "keypad.h"
 1233              		.file 25 "Generated_Source\\PSoC5/SW_2.h"
 1234              		.file 26 "Generated_Source\\PSoC5/SW_3.h"
 1235              		.file 27 "c:\\program files (x86)\\cypress\\psoc creator\\4.4\\psoc creator\\import\\gnu\\arm\\5.4